; Function Attrs: mustprogress uwtable
define dso_local void @_ZN4base5debug21GlobalActivityTracker19CreateWithAllocatorESt10unique_ptrINS_25PersistentMemoryAllocatorESt14default_deleteIS3_EEi(ptr nocapture noundef %allocator, i32 noundef %stack_depth) local_unnamed_addr #1 align 2 personality ptr @__gxx_personality_v0 {
entry:
  %agg.tmp = alloca %"class.std::unique_ptr", align 8
  %call = tail call noalias noundef nonnull dereferenceable(96) ptr @_Znwm(i64 noundef 96) #19
  %0 = load i64, ptr %allocator, align 8
  store i64 %0, ptr %agg.tmp, align 8
  store ptr null, ptr %allocator, align 8
  invoke void @_ZN4base5debug21GlobalActivityTrackerC2ESt10unique_ptrINS_25PersistentMemoryAllocatorESt14default_deleteIS3_EEi(ptr noundef nonnull align 8 dereferenceable(96) %call, ptr noundef nonnull %agg.tmp, i32 noundef %stack_depth)
          to label %invoke.cont unwind label %lpad

invoke.cont:                                      ; preds = %entry
  %1 = load ptr, ptr %agg.tmp, align 8
  %cmp.not.i = icmp eq ptr %1, null
  br i1 %cmp.not.i, label %_ZNSt10unique_ptrIN4base25PersistentMemoryAllocatorESt14default_deleteIS1_EED2Ev.exit, label %_ZNKSt14default_deleteIN4base25PersistentMemoryAllocatorEEclEPS1_.exit.i

_ZNKSt14default_deleteIN4base25PersistentMemoryAllocatorEEclEPS1_.exit.i: ; preds = %invoke.cont
  %vtable.i.i = load ptr, ptr %1, align 8
  %vfn.i.i = getelementptr inbounds i8, ptr %vtable.i.i, i64 8
  %2 = load ptr, ptr %vfn.i.i, align 8
  tail call void %2(ptr noundef nonnull align 8 dereferenceable(48) %1) #17
  br label %_ZNSt10unique_ptrIN4base25PersistentMemoryAllocatorESt14default_deleteIS1_EED2Ev.exit

_ZNSt10unique_ptrIN4base25PersistentMemoryAllocatorESt14default_deleteIS1_EED2Ev.exit: ; preds = %invoke.cont, %_ZNKSt14default_deleteIN4base25PersistentMemoryAllocatorEEclEPS1_.exit.i
  %call1 = tail call noundef ptr @_ZN4base5debug21GlobalActivityTracker29CreateTrackerForCurrentThreadEv(ptr noundef nonnull align 8 dereferenceable(96) %call)
  ret void

lpad:                                             ; preds = %entry
  %3 = landingpad { ptr, i32 }
          cleanup
  %4 = load ptr, ptr %agg.tmp, align 8
  %cmp.not.i1 = icmp eq ptr %4, null
  br i1 %cmp.not.i1, label %_ZNSt10unique_ptrIN4base25PersistentMemoryAllocatorESt14default_deleteIS1_EED2Ev.exit5, label %_ZNKSt14default_deleteIN4base25PersistentMemoryAllocatorEEclEPS1_.exit.i2

_ZNKSt14default_deleteIN4base25PersistentMemoryAllocatorEEclEPS1_.exit.i2: ; preds = %lpad
  %vtable.i.i3 = load ptr, ptr %4, align 8
  %vfn.i.i4 = getelementptr inbounds i8, ptr %vtable.i.i3, i64 8
  %5 = load ptr, ptr %vfn.i.i4, align 8
  tail call void %5(ptr noundef nonnull align 8 dereferenceable(48) %4) #17
  br label %_ZNSt10unique_ptrIN4base25PersistentMemoryAllocatorESt14default_deleteIS1_EED2Ev.exit5

_ZNSt10unique_ptrIN4base25PersistentMemoryAllocatorESt14default_deleteIS1_EED2Ev.exit5: ; preds = %lpad, %_ZNKSt14default_deleteIN4base25PersistentMemoryAllocatorEEclEPS1_.exit.i2
  tail call void @_ZdlPv(ptr noundef nonnull %call) #18
  resume { ptr, i32 } %3
}